target datalayout = "e-m:e-p270:32:32-p271:32:32-p272:64:64-i64:64-i128:128-f80:128-n8:16:32:64-S128"
target triple = "x86_64-pc-linux-gnu"

%struct._lv_global_t = type { i8, i8, %struct.lv_ll_t, ptr, ptr, %struct.lv_ll_t, i8, i32, i32, ptr, %struct.lv_ll_t, ptr, %struct.lv_ll_t, ptr, ptr, i32, ptr, i8, i32, i32, ptr, i32, %struct.lv_timer_state_t, %struct.lv_anim_state_t, %struct.lv_tick_state_t, %struct._lv_draw_buf_handlers_t, %struct._lv_draw_buf_handlers_t, %struct._lv_draw_buf_handlers_t, %struct.lv_ll_t, ptr, ptr, %struct.lv_draw_global_info_t, [4 x %struct.lv_draw_sw_mask_radius_circle_dsc_t], ptr, ptr, ptr, %struct.lv_tlsf_state_t, %struct.lv_ll_t, ptr, ptr, %struct.lv_style_t, i64, ptr, i32, ptr }
%struct.lv_timer_state_t = type { %struct.lv_ll_t, i8, i8, i8, i8, i32, i8, i32, i32, i32, i32, ptr, ptr }
%struct.lv_anim_state_t = type { i8, i8, ptr, %struct.lv_ll_t }
%struct.lv_tick_state_t = type { i32, i8, ptr, ptr }
%struct._lv_draw_buf_handlers_t = type { ptr, ptr, ptr, ptr, ptr, ptr }
%struct.lv_draw_global_info_t = type { ptr, i32, i32, i32, i32, i8 }
%struct.lv_draw_sw_mask_radius_circle_dsc_t = type { ptr, ptr, ptr, ptr, i32, i32, i32 }
%struct.lv_tlsf_state_t = type { ptr, i64, i64, %struct.lv_ll_t }
%struct.lv_ll_t = type { i32, ptr, ptr }
%struct.lv_style_t = type { ptr, i32, i8 }
%struct.lv_color_t = type { i8, i8, i8 }
%struct._my_theme_t = type { %struct._lv_theme_t, i32, i32, %struct.lv_color_t, %struct.lv_color_t, %struct.lv_color_t, %struct.lv_color_t, i8, %struct.my_theme_styles_t, %struct._lv_color_filter_dsc_t, %struct._lv_color_filter_dsc_t, %struct.lv_style_transition_dsc_t, %struct.lv_style_transition_dsc_t }
%struct._lv_theme_t = type { ptr, ptr, ptr, ptr, %struct.lv_color_t, %struct.lv_color_t, ptr, ptr, ptr, i32 }
%struct.my_theme_styles_t = type { %struct.lv_style_t, %struct.lv_style_t, %struct.lv_style_t, %struct.lv_style_t, %struct.lv_style_t, %struct.lv_style_t, %struct.lv_style_t, %struct.lv_style_t, %struct.lv_style_t, %struct.lv_style_t, %struct.lv_style_t, %struct.lv_style_t, %struct.lv_style_t, %struct.lv_style_t, %struct.lv_style_t, %struct.lv_style_t, %struct.lv_style_t, %struct.lv_style_t, %struct.lv_style_t, %struct.lv_style_t, %struct.lv_style_t, %struct.lv_style_t, %struct.lv_style_t, %struct.lv_style_t, %struct.lv_style_t, %struct.lv_style_t, %struct.lv_style_t, %struct.lv_style_t, %struct.lv_style_t, %struct.lv_style_t, %struct.lv_style_t, %struct.lv_style_t, %struct.lv_style_t, %struct.lv_style_t, %struct.lv_style_t, %struct.lv_style_t, %struct.lv_style_t, %struct.lv_style_t, %struct.lv_style_t, %struct.lv_style_t, %struct.lv_style_t, %struct.lv_style_t, %struct.lv_style_t, %struct.lv_style_t, %struct.lv_style_t, %struct.lv_style_t, %struct.lv_style_t, %struct.lv_style_t, %struct.lv_style_t, %struct.lv_style_t, %struct.lv_style_t, %struct.lv_style_t, %struct.lv_style_t, %struct.lv_style_t, %struct.lv_style_t, %struct.lv_style_t, %struct.lv_style_t, %struct.lv_style_t, %struct.lv_style_t, %struct.lv_style_t, %struct.lv_style_t, %struct.lv_style_t, %struct.lv_style_t, %struct.lv_style_t, %struct.lv_style_t, %struct.lv_style_t, %struct.lv_style_t }
%struct._lv_color_filter_dsc_t = type { ptr, ptr }
%struct.lv_style_transition_dsc_t = type { ptr, ptr, ptr, i32, i32 }

@lv_global = external global %struct._lv_global_t, align 8

; Function Attrs: nounwind uwtable
define zeroext i1 @lv_theme_default_is_inited() #0 {
  %1 = alloca i1, align 1
  %2 = alloca ptr, align 8
  %3 = alloca i32, align 4
  call void @llvm.lifetime.start.p0(i64 8, ptr %2) #5
  %4 = load ptr, ptr getelementptr inbounds nuw (%struct._lv_global_t, ptr @lv_global, i32 0, i32 34), align 8, !tbaa !3
  store ptr %4, ptr %2, align 8, !tbaa !3
  %5 = load ptr, ptr %2, align 8, !tbaa !3
  %6 = icmp eq ptr %5, null
  br i1 %6, label %7, label %8

7:                                                ; preds = %0
  store i1 false, ptr %1, align 1
  store i32 1, ptr %3, align 4
  br label %13

8:                                                ; preds = %0
  %9 = load ptr, ptr %2, align 8, !tbaa !3
  %10 = getelementptr inbounds nuw %struct._my_theme_t, ptr %9, i32 0, i32 7
  %11 = load i8, ptr %10, align 4, !tbaa !11, !range !19, !noundef !20
  %12 = trunc i8 %11 to i1
  store i1 %12, ptr %1, align 1
  store i32 1, ptr %3, align 4
  br label %13

13:                                               ; preds = %8, %7
  call void @llvm.lifetime.end.p0(i64 8, ptr %2) #5
  %14 = load i1, ptr %1, align 1
  ret i1 %14
}