; Function Attrs: mustprogress nofree norecurse nosync nounwind willreturn memory(read, inaccessiblemem: none) uwtable
define zeroext i1 @lv_theme_default_is_inited() local_unnamed_addr #1 {
  %1 = load ptr, ptr getelementptr inbounds nuw (i8, ptr @lv_global, i64 768), align 8, !tbaa !3
  %2 = icmp eq ptr %1, null
  br i1 %2, label %7, label %3

3:                                                ; preds = %0
  %4 = getelementptr inbounds nuw i8, ptr %1, i64 92
  %5 = load i8, ptr %4, align 4, !tbaa !7, !range !17, !noundef !18
  %6 = trunc nuw i8 %5 to i1
  br label %7

7:                                                ; preds = %0, %3
  %.0 = phi i1 [ %6, %3 ], [ false, %0 ]
  ret i1 %.0
}